target datalayout = "e-m:e-p270:32:32-p271:32:32-p272:64:64-i64:64-i128:128-f80:128-n8:16:32:64-S128"
target triple = "x86_64-pc-linux-gnu"

%struct.Vec_Int_t_ = type { i32, i32, ptr }
%struct.Ndr_Data_t_ = type { i32, i32, ptr, ptr }

@.str.15 = private unnamed_addr constant [30 x i8] c"Cannot read input file \22%s\22.\0A\00", align 1
@.str.16 = private unnamed_addr constant [31 x i8] c"Cannot read weight file \22%s\22.\0A\00", align 1
@.str.75 = private unnamed_addr constant [4 x i8] c"buf\00", align 1
@.str.76 = private unnamed_addr constant [4 x i8] c"not\00", align 1
@.str.104 = private unnamed_addr constant [10 x i8] c"endmodule\00", align 1
@.str.143 = private unnamed_addr constant [7 x i8] c"module\00", align 1
@.str.144 = private unnamed_addr constant [6 x i8] c"input\00", align 1
@.str.145 = private unnamed_addr constant [7 x i8] c"output\00", align 1
@.str.146 = private unnamed_addr constant [5 x i8] c"wire\00", align 1
@.str.147 = private unnamed_addr constant [4 x i8] c"and\00", align 1
@.str.148 = private unnamed_addr constant [5 x i8] c"nand\00", align 1
@.str.149 = private unnamed_addr constant [3 x i8] c"or\00", align 1
@.str.150 = private unnamed_addr constant [4 x i8] c"nor\00", align 1
@.str.151 = private unnamed_addr constant [4 x i8] c"xor\00", align 1
@.str.152 = private unnamed_addr constant [5 x i8] c"xnor\00", align 1
@.str.153 = private unnamed_addr constant [6 x i8] c"_HMUX\00", align 1
@.str.154 = private unnamed_addr constant [4 x i8] c"_DC\00", align 1

; Function Attrs: nounwind uwtable
define internal ptr @Acb_Num2Name(i32 noundef %0) #0 {
  %2 = alloca ptr, align 8
  %3 = alloca i32, align 4
  store i32 %0, ptr %3, align 4
  %4 = load i32, ptr %3, align 4
  %5 = icmp eq i32 %4, 1
  br i1 %5, label %6, label %7

6:                                                ; preds = %1
  store ptr @.str.143, ptr %2, align 8
  br label %64

7:                                                ; preds = %1
  %8 = load i32, ptr %3, align 4
  %9 = icmp eq i32 %8, 2
  br i1 %9, label %10, label %11

10:                                               ; preds = %7
  store ptr @.str.104, ptr %2, align 8
  br label %64

11:                                               ; preds = %7
  %12 = load i32, ptr %3, align 4
  %13 = icmp eq i32 %12, 3
  br i1 %13, label %14, label %15

14:                                               ; preds = %11
  store ptr @.str.144, ptr %2, align 8
  br label %64

15:                                               ; preds = %11
  %16 = load i32, ptr %3, align 4
  %17 = icmp eq i32 %16, 4
  br i1 %17, label %18, label %19

18:                                               ; preds = %15
  store ptr @.str.145, ptr %2, align 8
  br label %64

19:                                               ; preds = %15
  %20 = load i32, ptr %3, align 4
  %21 = icmp eq i32 %20, 5
  br i1 %21, label %22, label %23

22:                                               ; preds = %19
  store ptr @.str.146, ptr %2, align 8
  br label %64

23:                                               ; preds = %19
  %24 = load i32, ptr %3, align 4
  %25 = icmp eq i32 %24, 6
  br i1 %25, label %26, label %27

26:                                               ; preds = %23
  store ptr @.str.75, ptr %2, align 8
  br label %64

27:                                               ; preds = %23
  %28 = load i32, ptr %3, align 4
  %29 = icmp eq i32 %28, 7
  br i1 %29, label %30, label %31

30:                                               ; preds = %27
  store ptr @.str.76, ptr %2, align 8
  br label %64

31:                                               ; preds = %27
  %32 = load i32, ptr %3, align 4
  %33 = icmp eq i32 %32, 8
  br i1 %33, label %34, label %35

34:                                               ; preds = %31
  store ptr @.str.147, ptr %2, align 8
  br label %64

35:                                               ; preds = %31
  %36 = load i32, ptr %3, align 4
  %37 = icmp eq i32 %36, 9
  br i1 %37, label %38, label %39

38:                                               ; preds = %35
  store ptr @.str.148, ptr %2, align 8
  br label %64

39:                                               ; preds = %35
  %40 = load i32, ptr %3, align 4
  %41 = icmp eq i32 %40, 10
  br i1 %41, label %42, label %43

42:                                               ; preds = %39
  store ptr @.str.149, ptr %2, align 8
  br label %64

43:                                               ; preds = %39
  %44 = load i32, ptr %3, align 4
  %45 = icmp eq i32 %44, 11
  br i1 %45, label %46, label %47

46:                                               ; preds = %43
  store ptr @.str.150, ptr %2, align 8
  br label %64

47:                                               ; preds = %43
  %48 = load i32, ptr %3, align 4
  %49 = icmp eq i32 %48, 12
  br i1 %49, label %50, label %51

50:                                               ; preds = %47
  store ptr @.str.151, ptr %2, align 8
  br label %64

51:                                               ; preds = %47
  %52 = load i32, ptr %3, align 4
  %53 = icmp eq i32 %52, 13
  br i1 %53, label %54, label %55

54:                                               ; preds = %51
  store ptr @.str.152, ptr %2, align 8
  br label %64

55:                                               ; preds = %51
  %56 = load i32, ptr %3, align 4
  %57 = icmp eq i32 %56, 14
  br i1 %57, label %58, label %59

58:                                               ; preds = %55
  store ptr @.str.153, ptr %2, align 8
  br label %64

59:                                               ; preds = %55
  %60 = load i32, ptr %3, align 4
  %61 = icmp eq i32 %60, 15
  br i1 %61, label %62, label %63

62:                                               ; preds = %59
  store ptr @.str.154, ptr %2, align 8
  br label %64

63:                                               ; preds = %59
  store ptr null, ptr %2, align 8
  br label %64

64:                                               ; preds = %63, %62, %58, %54, %50, %46, %42, %38, %34, %30, %26, %22, %18, %14, %10, %6
  %65 = load ptr, ptr %2, align 8
  ret ptr %65
}

; Function Attrs: nounwind uwtable
define internal void @Vec_IntFreeP(ptr noundef %0) #0 {
  %2 = alloca ptr, align 8
  store ptr %0, ptr %2, align 8
  %3 = load ptr, ptr %2, align 8
  %4 = load ptr, ptr %3, align 8
  %5 = icmp eq ptr %4, null
  br i1 %5, label %6, label %7

6:                                                ; preds = %1
  br label %32

7:                                                ; preds = %1
  %8 = load ptr, ptr %2, align 8
  %9 = load ptr, ptr %8, align 8
  %10 = getelementptr inbounds %struct.Vec_Int_t_, ptr %9, i32 0, i32 2
  %11 = load ptr, ptr %10, align 8
  %12 = icmp ne ptr %11, null
  br i1 %12, label %13, label %21

13:                                               ; preds = %7
  %14 = load ptr, ptr %2, align 8
  %15 = load ptr, ptr %14, align 8
  %16 = getelementptr inbounds %struct.Vec_Int_t_, ptr %15, i32 0, i32 2
  %17 = load ptr, ptr %16, align 8
  call void @free(ptr noundef %17) #13
  %18 = load ptr, ptr %2, align 8
  %19 = load ptr, ptr %18, align 8
  %20 = getelementptr inbounds %struct.Vec_Int_t_, ptr %19, i32 0, i32 2
  store ptr null, ptr %20, align 8
  br label %22

21:                                               ; preds = %7
  br label %22

22:                                               ; preds = %21, %13
  %23 = load ptr, ptr %2, align 8
  %24 = load ptr, ptr %23, align 8
  %25 = icmp ne ptr %24, null
  br i1 %25, label %26, label %30

26:                                               ; preds = %22
  %27 = load ptr, ptr %2, align 8
  %28 = load ptr, ptr %27, align 8
  call void @free(ptr noundef %28) #13
  %29 = load ptr, ptr %2, align 8
  store ptr null, ptr %29, align 8
  br label %31

30:                                               ; preds = %22
  br label %31

31:                                               ; preds = %30, %26
  br label %32

32:                                               ; preds = %31, %6
  ret void
}

; Function Attrs: nounwind uwtable
define internal void @Vec_IntFree(ptr noundef %0) #0 {
  %2 = alloca ptr, align 8
  store ptr %0, ptr %2, align 8
  %3 = load ptr, ptr %2, align 8
  %4 = getelementptr inbounds %struct.Vec_Int_t_, ptr %3, i32 0, i32 2
  %5 = load ptr, ptr %4, align 8
  %6 = icmp ne ptr %5, null
  br i1 %6, label %7, label %13

7:                                                ; preds = %1
  %8 = load ptr, ptr %2, align 8
  %9 = getelementptr inbounds %struct.Vec_Int_t_, ptr %8, i32 0, i32 2
  %10 = load ptr, ptr %9, align 8
  call void @free(ptr noundef %10) #13
  %11 = load ptr, ptr %2, align 8
  %12 = getelementptr inbounds %struct.Vec_Int_t_, ptr %11, i32 0, i32 2
  store ptr null, ptr %12, align 8
  br label %14

13:                                               ; preds = %1
  br label %14

14:                                               ; preds = %13, %7
  %15 = load ptr, ptr %2, align 8
  %16 = icmp ne ptr %15, null
  br i1 %16, label %17, label %19

17:                                               ; preds = %14
  %18 = load ptr, ptr %2, align 8
  call void @free(ptr noundef %18) #13
  store ptr null, ptr %2, align 8
  br label %20

19:                                               ; preds = %14
  br label %20

20:                                               ; preds = %19, %17
  ret void
}

; Function Attrs: nounwind uwtable
define internal void @Ndr_Delete(ptr noundef %0) #0 {
  %2 = alloca ptr, align 8
  %3 = alloca ptr, align 8
  store ptr %0, ptr %2, align 8
  %4 = load ptr, ptr %2, align 8
  store ptr %4, ptr %3, align 8
  %5 = load ptr, ptr %3, align 8
  %6 = icmp ne ptr %5, null
  br i1 %6, label %8, label %7

7:                                                ; preds = %1
  br label %16

8:                                                ; preds = %1
  %9 = load ptr, ptr %3, align 8
  %10 = getelementptr inbounds %struct.Ndr_Data_t_, ptr %9, i32 0, i32 2
  %11 = load ptr, ptr %10, align 8
  call void @free(ptr noundef %11) #13
  %12 = load ptr, ptr %3, align 8
  %13 = getelementptr inbounds %struct.Ndr_Data_t_, ptr %12, i32 0, i32 3
  %14 = load ptr, ptr %13, align 8
  call void @free(ptr noundef %14) #13
  %15 = load ptr, ptr %3, align 8
  call void @free(ptr noundef %15) #13
  br label %16

16:                                               ; preds = %8, %7
  ret void
}

; Function Attrs: nounwind uwtable
define ptr @Acb_VerilogStartNames() #0 {
  %1 = alloca ptr, align 8
  %2 = alloca i32, align 4
  %3 = alloca i32, align 4
  %4 = alloca i32, align 4
  %5 = call ptr @Abc_NamStart(i32 noundef 100, i32 noundef 16)
  store ptr %5, ptr %1, align 8
  store i32 1, ptr %2, align 4
  br label %6

6:                                                ; preds = %14, %0
  %7 = load i32, ptr %2, align 4
  %8 = icmp slt i32 %7, 16
  br i1 %8, label %9, label %17

9:                                                ; preds = %6
  %10 = load ptr, ptr %1, align 8
  %11 = load i32, ptr %2, align 4
  %12 = call ptr @Acb_Num2Name(i32 noundef %11)
  %13 = call i32 @Abc_NamStrFindOrAdd(ptr noundef %10, ptr noundef %12, ptr noundef %4)
  store i32 %13, ptr %3, align 4
  br label %14

14:                                               ; preds = %9
  %15 = load i32, ptr %2, align 4
  %16 = add nsw i32 %15, 1
  store i32 %16, ptr %2, align 4
  br label %6, !llvm.loop !6

17:                                               ; preds = %6
  %18 = load ptr, ptr %1, align 8
  ret ptr %18
}

; Function Attrs: nounwind uwtable
define ptr @Acb_VerilogSimpleRead(ptr noundef %0, ptr noundef %1) #0 {
  %3 = alloca ptr, align 8
  %4 = alloca ptr, align 8
  %5 = alloca ptr, align 8
  %6 = alloca ptr, align 8
  %7 = alloca ptr, align 8
  %8 = alloca ptr, align 8
  %9 = alloca ptr, align 8
  %10 = alloca ptr, align 8
  store ptr %0, ptr %4, align 8
  store ptr %1, ptr %5, align 8
  %11 = call ptr @Acb_VerilogStartNames()
  store ptr %11, ptr %7, align 8
  %12 = load ptr, ptr %4, align 8
  %13 = load ptr, ptr %7, align 8
  %14 = call ptr @Acb_VerilogSimpleLex(ptr noundef %12, ptr noundef %13)
  store ptr %14, ptr %8, align 8
  %15 = load ptr, ptr %8, align 8
  %16 = icmp ne ptr %15, null
  br i1 %16, label %17, label %21

17:                                               ; preds = %2
  %18 = load ptr, ptr %8, align 8
  %19 = load ptr, ptr %7, align 8
  %20 = call ptr @Acb_VerilogSimpleParse(ptr noundef %18, ptr noundef %19)
  br label %22

21:                                               ; preds = %2
  br label %22

22:                                               ; preds = %21, %17
  %23 = phi ptr [ %20, %17 ], [ null, %21 ]
  store ptr %23, ptr %9, align 8
  %24 = load ptr, ptr %5, align 8
  %25 = icmp ne ptr %24, null
  br i1 %25, label %26, label %30

26:                                               ; preds = %22
  %27 = load ptr, ptr %5, align 8
  %28 = load ptr, ptr %7, align 8
  %29 = call ptr @Acb_ReadWeightMap(ptr noundef %27, ptr noundef %28)
  br label %31

30:                                               ; preds = %22
  br label %31

31:                                               ; preds = %30, %26
  %32 = phi ptr [ %29, %26 ], [ null, %30 ]
  store ptr %32, ptr %10, align 8
  %33 = load ptr, ptr %4, align 8
  %34 = icmp ne ptr %33, null
  br i1 %34, label %35, label %41

35:                                               ; preds = %31
  %36 = load ptr, ptr %9, align 8
  %37 = icmp eq ptr %36, null
  br i1 %37, label %38, label %41

38:                                               ; preds = %35
  %39 = load ptr, ptr %4, align 8
  %40 = call i32 (ptr, ...) @printf(ptr noundef @.str.15, ptr noundef %39)
  store ptr null, ptr %3, align 8
  br label %62

41:                                               ; preds = %35, %31
  %42 = load ptr, ptr %5, align 8
  %43 = icmp ne ptr %42, null
  br i1 %43, label %44, label %50

44:                                               ; preds = %41
  %45 = load ptr, ptr %10, align 8
  %46 = icmp eq ptr %45, null
  br i1 %46, label %47, label %50

47:                                               ; preds = %44
  %48 = load ptr, ptr %5, align 8
  %49 = call i32 (ptr, ...) @printf(ptr noundef @.str.16, ptr noundef %48)
  store ptr null, ptr %3, align 8
  br label %62

50:                                               ; preds = %44, %41
  %51 = load ptr, ptr %4, align 8
  %52 = load ptr, ptr %9, align 8
  %53 = load ptr, ptr %7, align 8
  %54 = load ptr, ptr %10, align 8
  %55 = load ptr, ptr %7, align 8
  %56 = call i32 @Abc_NamObjNumMax(ptr noundef %55)
  %57 = call ptr @Acb_NtkFromNdr(ptr noundef %51, ptr noundef %52, ptr noundef %53, ptr noundef %54, i32 noundef %56)
  store ptr %57, ptr %6, align 8
  %58 = load ptr, ptr %9, align 8
  call void @Ndr_Delete(ptr noundef %58)
  %59 = load ptr, ptr %8, align 8
  call void @Vec_IntFree(ptr noundef %59)
  call void @Vec_IntFreeP(ptr noundef %10)
  %60 = load ptr, ptr %7, align 8
  call void @Abc_NamDeref(ptr noundef %60)
  %61 = load ptr, ptr %6, align 8
  store ptr %61, ptr %3, align 8
  br label %62

62:                                               ; preds = %50, %47, %38
  %63 = load ptr, ptr %3, align 8
  ret ptr %63
}