; Function Attrs: nounwind uwtable
define ptr @Acb_VerilogSimpleRead(ptr noundef %0, ptr noundef %1) local_unnamed_addr #0 {
  %3 = alloca i32, align 4
  call void @llvm.lifetime.start.p0(i64 4, ptr nonnull %3)
  %4 = tail call ptr @Abc_NamStart(i32 noundef 100, i32 noundef 16) #31
  br label %5

5:                                                ; preds = %Acb_Num2Name.exit.i, %2
  %.04.i = phi i32 [ 1, %2 ], [ %21, %Acb_Num2Name.exit.i ]
  switch i32 %.04.i, label %19 [
    i32 1, label %Acb_Num2Name.exit.i
    i32 2, label %6
    i32 3, label %7
    i32 4, label %8
    i32 5, label %9
    i32 6, label %10
    i32 7, label %11
    i32 8, label %12
    i32 9, label %13
    i32 10, label %14
    i32 11, label %15
    i32 12, label %16
    i32 13, label %17
    i32 14, label %18
    i32 15, label %Acb_VerilogStartNames.exit
  ]

6:                                                ; preds = %5
  br label %Acb_Num2Name.exit.i

7:                                                ; preds = %5
  br label %Acb_Num2Name.exit.i

8:                                                ; preds = %5
  br label %Acb_Num2Name.exit.i

9:                                                ; preds = %5
  br label %Acb_Num2Name.exit.i

10:                                               ; preds = %5
  br label %Acb_Num2Name.exit.i

11:                                               ; preds = %5
  br label %Acb_Num2Name.exit.i

12:                                               ; preds = %5
  br label %Acb_Num2Name.exit.i

13:                                               ; preds = %5
  br label %Acb_Num2Name.exit.i

14:                                               ; preds = %5
  br label %Acb_Num2Name.exit.i

15:                                               ; preds = %5
  br label %Acb_Num2Name.exit.i

16:                                               ; preds = %5
  br label %Acb_Num2Name.exit.i

17:                                               ; preds = %5
  br label %Acb_Num2Name.exit.i

18:                                               ; preds = %5
  br label %Acb_Num2Name.exit.i

19:                                               ; preds = %5
  br label %Acb_Num2Name.exit.i

Acb_Num2Name.exit.i:                              ; preds = %19, %18, %17, %16, %15, %14, %13, %12, %11, %10, %9, %8, %7, %6, %5
  %.0.i.i = phi ptr [ @.str.104, %6 ], [ @.str.144, %7 ], [ @.str.145, %8 ], [ @.str.146, %9 ], [ @.str.75, %10 ], [ @.str.76, %11 ], [ @.str.147, %12 ], [ @.str.148, %13 ], [ @.str.149, %14 ], [ @.str.150, %15 ], [ @.str.151, %16 ], [ @.str.152, %17 ], [ @.str.153, %18 ], [ null, %19 ], [ @.str.143, %5 ]
  %20 = call i32 @Abc_NamStrFindOrAdd(ptr noundef %4, ptr noundef %.0.i.i, ptr noundef nonnull %3) #31
  %21 = add nuw nsw i32 %.04.i, 1
  br label %5

Acb_VerilogStartNames.exit:                       ; preds = %5
  %22 = call i32 @Abc_NamStrFindOrAdd(ptr noundef %4, ptr noundef nonnull @.str.154, ptr noundef nonnull %3) #31
  call void @llvm.lifetime.end.p0(i64 4, ptr nonnull %3)
  %23 = call ptr @Acb_VerilogSimpleLex(ptr noundef %0, ptr noundef %4)
  %.not = icmp eq ptr %23, null
  br i1 %.not, label %26, label %24

24:                                               ; preds = %Acb_VerilogStartNames.exit
  %25 = call ptr @Acb_VerilogSimpleParse(ptr noundef nonnull %23, ptr noundef %4)
  br label %26

26:                                               ; preds = %Acb_VerilogStartNames.exit, %24
  %27 = phi ptr [ %25, %24 ], [ null, %Acb_VerilogStartNames.exit ]
  %28 = icmp ne ptr %1, null
  br i1 %28, label %29, label %31

29:                                               ; preds = %26
  %30 = call ptr @Acb_ReadWeightMap(ptr noundef nonnull %1, ptr noundef %4)
  br label %31

31:                                               ; preds = %26, %29
  %32 = phi ptr [ %30, %29 ], [ null, %26 ]
  %33 = icmp ne ptr %0, null
  %34 = icmp eq ptr %27, null
  %or.cond = and i1 %33, %34
  br i1 %or.cond, label %35, label %37

35:                                               ; preds = %31
  %36 = call i32 (ptr, ...) @printf(ptr noundef nonnull dereferenceable(1) @.str.15, ptr noundef nonnull %0)
  br label %56

37:                                               ; preds = %31
  %38 = icmp eq ptr %32, null
  %or.cond3 = and i1 %28, %38
  br i1 %or.cond3, label %39, label %41

39:                                               ; preds = %37
  %40 = call i32 (ptr, ...) @printf(ptr noundef nonnull dereferenceable(1) @.str.16, ptr noundef nonnull %1)
  br label %56

41:                                               ; preds = %37
  %42 = call i32 @Abc_NamObjNumMax(ptr noundef %4) #31
  %43 = call ptr @Acb_NtkFromNdr(ptr noundef %0, ptr noundef %27, ptr noundef %4, ptr noundef %32, i32 noundef %42) #31
  br i1 %34, label %Ndr_Delete.exit, label %44

44:                                               ; preds = %41
  %45 = getelementptr inbounds nuw i8, ptr %27, i64 8
  %46 = load ptr, ptr %45, align 8
  call void @free(ptr noundef %46) #31
  %47 = getelementptr inbounds nuw i8, ptr %27, i64 16
  %48 = load ptr, ptr %47, align 8
  call void @free(ptr noundef %48) #31
  call void @free(ptr noundef nonnull %27) #31
  br label %Ndr_Delete.exit

Ndr_Delete.exit:                                  ; preds = %41, %44
  %49 = getelementptr inbounds nuw i8, ptr %23, i64 8
  %50 = load ptr, ptr %49, align 8
  %.not.i28 = icmp eq ptr %50, null
  br i1 %.not.i28, label %Vec_IntFree.exit, label %51

51:                                               ; preds = %Ndr_Delete.exit
  call void @free(ptr noundef nonnull %50) #31
  br label %Vec_IntFree.exit

Vec_IntFree.exit:                                 ; preds = %Ndr_Delete.exit, %51
  call void @free(ptr noundef nonnull %23) #31
  br i1 %38, label %Vec_IntFreeP.exit, label %52

52:                                               ; preds = %Vec_IntFree.exit
  %53 = getelementptr inbounds nuw i8, ptr %32, i64 8
  %54 = load ptr, ptr %53, align 8
  %.not.i29 = icmp eq ptr %54, null
  br i1 %.not.i29, label %.thread.i, label %55

55:                                               ; preds = %52
  call void @free(ptr noundef nonnull %54) #31
  br label %.thread.i

.thread.i:                                        ; preds = %55, %52
  call void @free(ptr noundef nonnull %32) #31
  br label %Vec_IntFreeP.exit

Vec_IntFreeP.exit:                                ; preds = %Vec_IntFree.exit, %.thread.i
  call void @Abc_NamDeref(ptr noundef %4) #31
  br label %56

56:                                               ; preds = %Vec_IntFreeP.exit, %39, %35
  %.0 = phi ptr [ null, %35 ], [ null, %39 ], [ %43, %Vec_IntFreeP.exit ]
  ret ptr %.0
}